; ModuleID = '28/1723.c'
source_filename = "28/1723.c"
target datalayout = "e-m:e-p270:32:32-p271:32:32-p272:64:64-i64:64-f80:128-n8:16:32:64-S128"
target triple = "x86_64-pc-linux-gnu"

@.str = private unnamed_addr constant [4 x i8] c"%d,\00", align 1
@.str.1 = private unnamed_addr constant [3 x i8] c"%d\00", align 1

; Function Attrs: noinline nounwind uwtable
define dso_local i32 @main() #0 {
  %1 = alloca i32, align 4
  %2 = alloca [3000 x i8], align 16
  %3 = alloca [300 x i32], align 16
  %4 = alloca [300 x i32], align 16
  %5 = alloca i32, align 4
  %6 = alloca i32, align 4
  %7 = alloca i32, align 4
  %8 = alloca i32, align 4
  %9 = alloca i32, align 4
  %10 = alloca i32, align 4
  store i32 0, i32* %1, align 4
  %11 = bitcast [300 x i32]* %4 to i8*
  call void @llvm.memset.p0i8.i64(i8* align 16 %11, i8 0, i64 1200, i1 false)
  %12 = getelementptr inbounds [3000 x i8], [3000 x i8]* %2, i64 0, i64 0
  %13 = call i32 (i8*, ...) bitcast (i32 (...)* @gets to i32 (i8*, ...)*)(i8* %12)
  %14 = getelementptr inbounds [3000 x i8], [3000 x i8]* %2, i64 0, i64 0
  %15 = call i64 @strlen(i8* %14) #4
  %16 = trunc i64 %15 to i32
  store i32 %16, i32* %8, align 4
  %17 = getelementptr inbounds [300 x i32], [300 x i32]* %3, i64 0, i64 0
  store i32 -1, i32* %17, align 16
  store i32 1, i32* %9, align 4
  store i32 0, i32* %10, align 4
  store i32 0, i32* %5, align 4
  br label %18

18:                                               ; preds = %87, %0
  %19 = load i32, i32* %5, align 4
  %20 = load i32, i32* %8, align 4
  %21 = icmp slt i32 %19, %20
  br i1 %21, label %22, label %90

22:                                               ; preds = %18
  %23 = load i32, i32* %5, align 4
  %24 = sext i32 %23 to i64
  %25 = getelementptr inbounds [3000 x i8], [3000 x i8]* %2, i64 0, i64 %24
  %26 = load i8, i8* %25, align 1
  %27 = sext i8 %26 to i32
  %28 = icmp eq i32 %27, 32
  br i1 %28, label %29, label %65

29:                                               ; preds = %22
  %30 = load i32, i32* %5, align 4
  %31 = sub nsw i32 %30, 1
  %32 = sext i32 %31 to i64
  %33 = getelementptr inbounds [3000 x i8], [3000 x i8]* %2, i64 0, i64 %32
  %34 = load i8, i8* %33, align 1
  %35 = sext i8 %34 to i32
  %36 = icmp ne i32 %35, 32
  br i1 %36, label %37, label %65

37:                                               ; preds = %29
  %38 = load i32, i32* %5, align 4
  %39 = load i32, i32* %9, align 4
  %40 = sext i32 %39 to i64
  %41 = getelementptr inbounds [300 x i32], [300 x i32]* %3, i64 0, i64 %40
  store i32 %38, i32* %41, align 4
  %42 = load i32, i32* %10, align 4
  %43 = sext i32 %42 to i64
  %44 = getelementptr inbounds [300 x i32], [300 x i32]* %4, i64 0, i64 %43
  %45 = load i32, i32* %44, align 4
  %46 = load i32, i32* %9, align 4
  %47 = sext i32 %46 to i64
  %48 = getelementptr inbounds [300 x i32], [300 x i32]* %3, i64 0, i64 %47
  %49 = load i32, i32* %48, align 4
  %50 = add nsw i32 %45, %49
  %51 = load i32, i32* %9, align 4
  %52 = sub nsw i32 %51, 1
  %53 = sext i32 %52 to i64
  %54 = getelementptr inbounds [300 x i32], [300 x i32]* %3, i64 0, i64 %53
  %55 = load i32, i32* %54, align 4
  %56 = sub nsw i32 %50, %55
  %57 = sub nsw i32 %56, 1
  %58 = load i32, i32* %10, align 4
  %59 = sext i32 %58 to i64
  %60 = getelementptr inbounds [300 x i32], [300 x i32]* %4, i64 0, i64 %59
  store i32 %57, i32* %60, align 4
  %61 = load i32, i32* %9, align 4
  %62 = add nsw i32 %61, 1
  store i32 %62, i32* %9, align 4
  %63 = load i32, i32* %10, align 4
  %64 = add nsw i32 %63, 1
  store i32 %64, i32* %10, align 4
  br label %65

65:                                               ; preds = %37, %29, %22
  %66 = load i32, i32* %5, align 4
  %67 = sext i32 %66 to i64
  %68 = getelementptr inbounds [3000 x i8], [3000 x i8]* %2, i64 0, i64 %67
  %69 = load i8, i8* %68, align 1
  %70 = sext i8 %69 to i32
  %71 = icmp eq i32 %70, 32
  br i1 %71, label %72, label %86

72:                                               ; preds = %65
  %73 = load i32, i32* %5, align 4
  %74 = sub nsw i32 %73, 1
  %75 = sext i32 %74 to i64
  %76 = getelementptr inbounds [3000 x i8], [3000 x i8]* %2, i64 0, i64 %75
  %77 = load i8, i8* %76, align 1
  %78 = sext i8 %77 to i32
  %79 = icmp eq i32 %78, 32
  br i1 %79, label %80, label %86

80:                                               ; preds = %72
  %81 = load i32, i32* %10, align 4
  %82 = sext i32 %81 to i64
  %83 = getelementptr inbounds [300 x i32], [300 x i32]* %4, i64 0, i64 %82
  %84 = load i32, i32* %83, align 4
  %85 = add nsw i32 %84, -1
  store i32 %85, i32* %83, align 4
  br label %86

86:                                               ; preds = %80, %72, %65
  br label %87

87:                                               ; preds = %86
  %88 = load i32, i32* %5, align 4
  %89 = add nsw i32 %88, 1
  store i32 %89, i32* %5, align 4
  br label %18

90:                                               ; preds = %18
  %91 = load i32, i32* %8, align 4
  %92 = load i32, i32* %9, align 4
  %93 = sext i32 %92 to i64
  %94 = getelementptr inbounds [300 x i32], [300 x i32]* %3, i64 0, i64 %93
  store i32 %91, i32* %94, align 4
  %95 = load i32, i32* %10, align 4
  %96 = sext i32 %95 to i64
  %97 = getelementptr inbounds [300 x i32], [300 x i32]* %4, i64 0, i64 %96
  %98 = load i32, i32* %97, align 4
  %99 = load i32, i32* %9, align 4
  %100 = sext i32 %99 to i64
  %101 = getelementptr inbounds [300 x i32], [300 x i32]* %3, i64 0, i64 %100
  %102 = load i32, i32* %101, align 4
  %103 = add nsw i32 %98, %102
  %104 = load i32, i32* %9, align 4
  %105 = sub nsw i32 %104, 1
  %106 = sext i32 %105 to i64
  %107 = getelementptr inbounds [300 x i32], [300 x i32]* %3, i64 0, i64 %106
  %108 = load i32, i32* %107, align 4
  %109 = sub nsw i32 %103, %108
  %110 = sub nsw i32 %109, 1
  %111 = load i32, i32* %10, align 4
  %112 = sext i32 %111 to i64
  %113 = getelementptr inbounds [300 x i32], [300 x i32]* %4, i64 0, i64 %112
  store i32 %110, i32* %113, align 4
  store i32 0, i32* %5, align 4
  br label %114

114:                                              ; preds = %124, %90
  %115 = load i32, i32* %5, align 4
  %116 = load i32, i32* %10, align 4
  %117 = icmp slt i32 %115, %116
  br i1 %117, label %118, label %127

118:                                              ; preds = %114
  %119 = load i32, i32* %5, align 4
  %120 = sext i32 %119 to i64
  %121 = getelementptr inbounds [300 x i32], [300 x i32]* %4, i64 0, i64 %120
  %122 = load i32, i32* %121, align 4
  %123 = call i32 (i8*, ...) @printf(i8* getelementptr inbounds ([4 x i8], [4 x i8]* @.str, i64 0, i64 0), i32 %122)
  br label %124

124:                                              ; preds = %118
  %125 = load i32, i32* %5, align 4
  %126 = add nsw i32 %125, 1
  store i32 %126, i32* %5, align 4
  br label %114

127:                                              ; preds = %114
  %128 = load i32, i32* %10, align 4
  %129 = sext i32 %128 to i64
  %130 = getelementptr inbounds [300 x i32], [300 x i32]* %4, i64 0, i64 %129
  %131 = load i32, i32* %130, align 4
  %132 = call i32 (i8*, ...) @printf(i8* getelementptr inbounds ([3 x i8], [3 x i8]* @.str.1, i64 0, i64 0), i32 %131)
  ret i32 0
}

; Function Attrs: argmemonly nounwind willreturn
declare void @llvm.memset.p0i8.i64(i8* nocapture writeonly, i8, i64, i1 immarg) #1

declare dso_local i32 @gets(...) #2

; Function Attrs: nounwind readonly
declare dso_local i64 @strlen(i8*) #3

declare dso_local i32 @printf(i8*, ...) #2


!llvm.module.flags = !{!0}
!llvm.ident = !{!1}

!0 = !{i32 1, !"wchar_size", i32 4}
!1 = !{!"clang version 10.0.0-4ubuntu1 "}
