; ModuleID = 'source-C-CXX/27/1723.c'
source_filename = "source-C-CXX/27/1723.c"
target datalayout = "e-m:e-p270:32:32-p271:32:32-p272:64:64-i64:64-f80:128-n8:16:32:64-S128"
target triple = "x86_64-pc-linux-gnu"

@.str = private unnamed_addr constant [4 x i8] c"%d,\00", align 1
@.str.1 = private unnamed_addr constant [3 x i8] c"%d\00", align 1

; Function Attrs: nounwind sspstrong uwtable
define dso_local i32 @main() local_unnamed_addr #0 {
  %1 = alloca [3000 x i8], align 16
  %2 = alloca [300 x i32], align 16
  %3 = alloca [300 x i32], align 16
  %4 = getelementptr inbounds [3000 x i8], [3000 x i8]* %1, i64 0, i64 0
  call void @llvm.lifetime.start.p0i8(i64 3000, i8* nonnull %4) #6
  %5 = bitcast [300 x i32]* %2 to i8*
  call void @llvm.lifetime.start.p0i8(i64 1200, i8* nonnull %5) #6
  %6 = bitcast [300 x i32]* %3 to i8*
  call void @llvm.lifetime.start.p0i8(i64 1200, i8* nonnull %6) #6
  call void @llvm.memset.p0i8.i64(i8* noundef nonnull align 16 dereferenceable(1200) %6, i8 0, i64 1200, i1 false)
  %7 = call i32 (i8*, ...) bitcast (i32 (...)* @gets to i32 (i8*, ...)*)(i8* nonnull %4) #6
  %8 = call i64 @strlen(i8* noundef nonnull %4) #7
  %9 = trunc i64 %8 to i32
  %10 = getelementptr inbounds [300 x i32], [300 x i32]* %2, i64 0, i64 0
  store i32 -1, i32* %10, align 16, !tbaa !5
  %11 = icmp sgt i32 %9, 0
  br i1 %11, label %12, label %52

12:                                               ; preds = %0
  %13 = and i64 %8, 4294967295
  br label %14

14:                                               ; preds = %12, %47
  %15 = phi i64 [ 0, %12 ], [ %50, %47 ]
  %16 = phi i32 [ 0, %12 ], [ %48, %47 ]
  %17 = phi i32 [ 1, %12 ], [ %49, %47 ]
  %18 = getelementptr inbounds [3000 x i8], [3000 x i8]* %1, i64 0, i64 %15
  %19 = load i8, i8* %18, align 1, !tbaa !9
  %20 = icmp eq i8 %19, 32
  br i1 %20, label %21, label %47

21:                                               ; preds = %14
  %22 = add nsw i64 %15, -1
  %23 = getelementptr inbounds [3000 x i8], [3000 x i8]* %1, i64 0, i64 %22
  %24 = load i8, i8* %23, align 1, !tbaa !9
  %25 = icmp eq i8 %24, 32
  br i1 %25, label %42, label %26

26:                                               ; preds = %21
  %27 = sext i32 %17 to i64
  %28 = getelementptr inbounds [300 x i32], [300 x i32]* %2, i64 0, i64 %27
  %29 = trunc i64 %15 to i32
  store i32 %29, i32* %28, align 4, !tbaa !5
  %30 = sext i32 %16 to i64
  %31 = getelementptr inbounds [300 x i32], [300 x i32]* %3, i64 0, i64 %30
  %32 = load i32, i32* %31, align 4, !tbaa !5
  %33 = add nsw i32 %32, %29
  %34 = add nsw i32 %17, -1
  %35 = sext i32 %34 to i64
  %36 = getelementptr inbounds [300 x i32], [300 x i32]* %2, i64 0, i64 %35
  %37 = load i32, i32* %36, align 4, !tbaa !5
  %38 = xor i32 %37, -1
  %39 = add i32 %33, %38
  store i32 %39, i32* %31, align 4, !tbaa !5
  %40 = add nsw i32 %17, 1
  %41 = add nsw i32 %16, 1
  br label %47

42:                                               ; preds = %21
  %43 = sext i32 %16 to i64
  %44 = getelementptr inbounds [300 x i32], [300 x i32]* %3, i64 0, i64 %43
  %45 = load i32, i32* %44, align 4, !tbaa !5
  %46 = add nsw i32 %45, -1
  store i32 %46, i32* %44, align 4, !tbaa !5
  br label %47

47:                                               ; preds = %26, %14, %42
  %48 = phi i32 [ %41, %26 ], [ %16, %42 ], [ %16, %14 ]
  %49 = phi i32 [ %40, %26 ], [ %17, %42 ], [ %17, %14 ]
  %50 = add nuw nsw i64 %15, 1
  %51 = icmp eq i64 %50, %13
  br i1 %51, label %52, label %14, !llvm.loop !10

52:                                               ; preds = %47, %0
  %53 = phi i32 [ 1, %0 ], [ %49, %47 ]
  %54 = phi i32 [ 0, %0 ], [ %48, %47 ]
  %55 = sext i32 %53 to i64
  %56 = getelementptr inbounds [300 x i32], [300 x i32]* %2, i64 0, i64 %55
  store i32 %9, i32* %56, align 4, !tbaa !5
  %57 = sext i32 %54 to i64
  %58 = getelementptr inbounds [300 x i32], [300 x i32]* %3, i64 0, i64 %57
  %59 = load i32, i32* %58, align 4, !tbaa !5
  %60 = add nsw i32 %59, %9
  %61 = add nsw i32 %53, -1
  %62 = sext i32 %61 to i64
  %63 = getelementptr inbounds [300 x i32], [300 x i32]* %2, i64 0, i64 %62
  %64 = load i32, i32* %63, align 4, !tbaa !5
  %65 = xor i32 %64, -1
  %66 = add i32 %60, %65
  store i32 %66, i32* %58, align 4, !tbaa !5
  %67 = icmp sgt i32 %54, 0
  br i1 %67, label %68, label %77

68:                                               ; preds = %52
  %69 = zext i32 %54 to i64
  br label %70

70:                                               ; preds = %68, %70
  %71 = phi i64 [ 0, %68 ], [ %75, %70 ]
  %72 = getelementptr inbounds [300 x i32], [300 x i32]* %3, i64 0, i64 %71
  %73 = load i32, i32* %72, align 4, !tbaa !5
  %74 = call i32 (i8*, ...) @printf(i8* nonnull dereferenceable(1) getelementptr inbounds ([4 x i8], [4 x i8]* @.str, i64 0, i64 0), i32 %73)
  %75 = add nuw nsw i64 %71, 1
  %76 = icmp eq i64 %75, %69
  br i1 %76, label %77, label %70, !llvm.loop !12

77:                                               ; preds = %70, %52
  %78 = call i32 (i8*, ...) @printf(i8* nonnull dereferenceable(1) getelementptr inbounds ([3 x i8], [3 x i8]* @.str.1, i64 0, i64 0), i32 %66)
  call void @llvm.lifetime.end.p0i8(i64 1200, i8* nonnull %6) #6
  call void @llvm.lifetime.end.p0i8(i64 1200, i8* nonnull %5) #6
  call void @llvm.lifetime.end.p0i8(i64 3000, i8* nonnull %4) #6
  ret i32 0
}

; Function Attrs: argmemonly mustprogress nofree nosync nounwind willreturn
declare void @llvm.lifetime.start.p0i8(i64 immarg, i8* nocapture) #1

; Function Attrs: argmemonly mustprogress nofree nounwind willreturn writeonly
declare void @llvm.memset.p0i8.i64(i8* nocapture writeonly, i8, i64, i1 immarg) #2

declare i32 @gets(...) local_unnamed_addr #3

; Function Attrs: argmemonly mustprogress nofree nounwind readonly willreturn
declare i64 @strlen(i8* nocapture) local_unnamed_addr #4

; Function Attrs: nofree nounwind
declare noundef i32 @printf(i8* nocapture noundef readonly, ...) local_unnamed_addr #5

; Function Attrs: argmemonly mustprogress nofree nosync nounwind willreturn
declare void @llvm.lifetime.end.p0i8(i64 immarg, i8* nocapture) #1


!llvm.module.flags = !{!0, !1, !2, !3}
!llvm.ident = !{!4}

!0 = !{i32 1, !"wchar_size", i32 4}
!1 = !{i32 7, !"PIC Level", i32 2}
!2 = !{i32 7, !"PIE Level", i32 2}
!3 = !{i32 7, !"uwtable", i32 1}
!4 = !{!"clang version 13.0.0"}
!5 = !{!6, !6, i64 0}
!6 = !{!"int", !7, i64 0}
!7 = !{!"omnipotent char", !8, i64 0}
!8 = !{!"Simple C/C++ TBAA"}
!9 = !{!7, !7, i64 0}
!10 = distinct !{!10, !11}
!11 = !{!"llvm.loop.mustprogress"}
!12 = distinct !{!12, !11}
